target datalayout = "e-m:e-p270:32:32-p271:32:32-p272:64:64-i64:64-i128:128-f80:128-n8:16:32:64-S128"
target triple = "x86_64-pc-linux-gnu"

%struct.adjust_data = type { i32, ptr, i32, double }

; Function Attrs: nounwind uwtable
define i32 @removeOverlapAs(ptr noundef %0, ptr noundef %1) #0 {
  %3 = alloca i32, align 4
  %4 = alloca ptr, align 8
  %5 = alloca ptr, align 8
  %6 = alloca %struct.adjust_data, align 8
  %7 = alloca i32, align 4
  store ptr %0, ptr %4, align 8, !tbaa !3
  store ptr %1, ptr %5, align 8, !tbaa !50
  call void @llvm.lifetime.start.p0(i64 32, ptr %6) #13
  %8 = load ptr, ptr %4, align 8, !tbaa !3
  %9 = call i32 @agnnodes(ptr noundef %8)
  %10 = icmp slt i32 %9, 2
  br i1 %10, label %11, label %12

11:                                               ; preds = %2
  store i32 0, ptr %3, align 4
  store i32 1, ptr %7, align 4
  br label %17

12:                                               ; preds = %2
  %13 = load ptr, ptr %4, align 8, !tbaa !3
  %14 = load ptr, ptr %5, align 8, !tbaa !50
  call void @getAdjustMode(ptr noundef %13, ptr noundef %14, ptr noundef %6)
  %15 = load ptr, ptr %4, align 8, !tbaa !3
  %16 = call i32 @removeOverlapWith(ptr noundef %15, ptr noundef %6)
  store i32 %16, ptr %3, align 4
  store i32 1, ptr %7, align 4
  br label %17

17:                                               ; preds = %12, %11
  call void @llvm.lifetime.end.p0(i64 32, ptr %6) #13
  %18 = load i32, ptr %3, align 4
  ret i32 %18
}