; Function Attrs: nounwind uwtable
define i32 @removeOverlapAs(ptr noundef %0, ptr noundef %1) local_unnamed_addr #0 {
  %3 = alloca %struct.adjust_data, align 8
  call void @llvm.lifetime.start.p0(i64 32, ptr nonnull %3) #20
  %4 = tail call i32 @agnnodes(ptr noundef %0) #20
  %5 = icmp slt i32 %4, 2
  br i1 %5, label %8, label %6

6:                                                ; preds = %2
  call fastcc void @getAdjustMode(ptr noundef %0, ptr noundef %1, ptr noundef nonnull %3)
  %7 = call i32 @removeOverlapWith(ptr noundef %0, ptr noundef nonnull %3)
  br label %8

8:                                                ; preds = %2, %6
  %.0 = phi i32 [ %7, %6 ], [ 0, %2 ]
  call void @llvm.lifetime.end.p0(i64 32, ptr nonnull %3) #20
  ret i32 %.0
}